target datalayout = "e-m:e-p270:32:32-p271:32:32-p272:64:64-i64:64-i128:128-f80:128-n8:16:32:64-S128"
target triple = "x86_64-pc-linux-gnu"

%struct.reassembly_table = type { ptr, ptr, ptr, ptr, ptr }
%struct.reassembly_table_functions = type { ptr, ptr, ptr, ptr, ptr, ptr }

@q931_user_heur_subdissector_list = internal global ptr null, align 8
@proto_register_q931.ett = internal global [259 x ptr] zeroinitializer, align 16
@ett_q931 = internal global i32 0, align 4
@ett_q931_segments = internal global i32 0, align 4
@ett_q931_segment = internal global i32 0, align 4
@ett_q931_ie = internal global [256 x i32] zeroinitializer, align 16
@.str.363 = private unnamed_addr constant [6 x i8] c"Q.931\00", align 1
@.str.364 = private unnamed_addr constant [5 x i8] c"q931\00", align 1
@proto_q931 = internal global i32 0, align 4
@q931_reassembly_table = internal global %struct.reassembly_table zeroinitializer, align 8
@addresses_reassembly_table_functions = external constant %struct.reassembly_table_functions, align 8
@q931_handle = internal global ptr null, align 8
@.str.365 = private unnamed_addr constant [10 x i8] c"q931.tpkt\00", align 1
@q931_tpkt_handle = internal global ptr null, align 8
@q931_tpkt_pdu_handle = internal global ptr null, align 8
@.str.366 = private unnamed_addr constant [13 x i8] c"q931.over_ip\00", align 1
@q931_over_ip_handle = internal global ptr null, align 8
@.str.367 = private unnamed_addr constant [8 x i8] c"q931.ie\00", align 1
@.str.368 = private unnamed_addr constant [12 x i8] c"q931.ie.cs7\00", align 1
@.str.369 = private unnamed_addr constant [13 x i8] c"q931.codeset\00", align 1
@.str.370 = private unnamed_addr constant [14 x i8] c"Q.931 Codeset\00", align 1
@codeset_dissector_table = internal global ptr null, align 8
@.str.371 = private unnamed_addr constant [9 x i8] c"Q.931 IE\00", align 1
@ie_dissector_table = internal global ptr null, align 8
@.str.372 = private unnamed_addr constant [10 x i8] c"q931_user\00", align 1
@.str.373 = private unnamed_addr constant [22 x i8] c"Q.931 IE User payload\00", align 1
@.str.374 = private unnamed_addr constant [24 x i8] c"desegment_h323_messages\00", align 1
@.str.375 = private unnamed_addr constant [57 x i8] c"Reassemble Q.931 messages spanning multiple TCP segments\00", align 1
@.str.376 = private unnamed_addr constant [206 x i8] c"Whether the Q.931 dissector should reassemble messages spanning multiple TCP segments. To use this option, you must also enable \22Allow subdissectors to reassemble TCP streams\22 in the TCP protocol settings.\00", align 1
@q931_desegment = internal global i8 1, align 1
@.str.377 = private unnamed_addr constant [11 x i8] c"reassembly\00", align 1
@.str.378 = private unnamed_addr constant [36 x i8] c"Reassemble segmented Q.931 messages\00", align 1
@.str.379 = private unnamed_addr constant [54 x i8] c"Reassemble segmented Q.931 messages (Q.931 - Annex H)\00", align 1
@q931_reassembly = internal global i8 1, align 1
@.str.380 = private unnamed_addr constant [21 x i8] c"iso_iec_cause_coding\00", align 1
@.str.381 = private unnamed_addr constant [46 x i8] c"Decode ISO/IEC cause coding standard as ITU-T\00", align 1
@g931_iso_iec_cause = internal global i8 0, align 1
@q931_tap = internal global i32 0, align 4

; Function Attrs: null_pointer_is_valid sspstrong uwtable
define hidden void @proto_register_q931() #0 {
  %1 = alloca i32, align 4
  %2 = alloca i32, align 4
  %3 = alloca ptr, align 8
  %4 = alloca ptr, align 8
  call void @llvm.lifetime.start.p0(i64 4, ptr %1) #8
  call void @llvm.lifetime.start.p0(i64 4, ptr %2) #8
  call void @llvm.lifetime.start.p0(i64 8, ptr %3) #8
  call void @llvm.lifetime.start.p0(i64 8, ptr %4) #8
  store ptr @ett_q931, ptr @proto_register_q931.ett, align 16
  store ptr @ett_q931_segments, ptr getelementptr ([259 x ptr], ptr @proto_register_q931.ett, i64 0, i64 1), align 8
  store ptr @ett_q931_segment, ptr getelementptr ([259 x ptr], ptr @proto_register_q931.ett, i64 0, i64 2), align 16
  store i32 3, ptr %2, align 4
  store i32 0, ptr %1, align 4
  br label %5

5:                                                ; preds = %15, %0
  %6 = load i32, ptr %1, align 4
  %7 = icmp ult i32 %6, 256
  br i1 %7, label %8, label %20

8:                                                ; preds = %5
  %9 = load i32, ptr %1, align 4
  %10 = zext i32 %9 to i64
  %11 = getelementptr [256 x i32], ptr @ett_q931_ie, i64 0, i64 %10
  %12 = load i32, ptr %2, align 4
  %13 = zext i32 %12 to i64
  %14 = getelementptr [259 x ptr], ptr @proto_register_q931.ett, i64 0, i64 %13
  store ptr %11, ptr %14, align 8
  br label %15

15:                                               ; preds = %8
  %16 = load i32, ptr %1, align 4
  %17 = add i32 %16, 1
  store i32 %17, ptr %1, align 4
  %18 = load i32, ptr %2, align 4
  %19 = add i32 %18, 1
  store i32 %19, ptr %2, align 4
  br label %5, !llvm.loop !10

20:                                               ; preds = %5
  %21 = call i32 @proto_register_protocol(ptr noundef @.str.363, ptr noundef @.str.363, ptr noundef @.str.364)
  store i32 %21, ptr @proto_q931, align 4
  %22 = load i32, ptr @proto_q931, align 4
  call void @proto_register_field_array(i32 noundef %22, ptr noundef @proto_register_q931.hf, i32 noundef 153)
  call void @proto_register_subtree_array(ptr noundef @proto_register_q931.ett, i32 noundef 259)
  %23 = load i32, ptr @proto_q931, align 4
  %24 = call ptr @expert_register_protocol(i32 noundef %23)
  store ptr %24, ptr %4, align 8
  %25 = load ptr, ptr %4, align 8
  call void @expert_register_field_array(ptr noundef %25, ptr noundef @proto_register_q931.ei, i32 noundef 4)
  call void @reassembly_table_register(ptr noundef @q931_reassembly_table, ptr noundef @addresses_reassembly_table_functions)
  %26 = load i32, ptr @proto_q931, align 4
  %27 = call ptr @register_dissector(ptr noundef @.str.364, ptr noundef @dissect_q931, i32 noundef %26)
  store ptr %27, ptr @q931_handle, align 8
  %28 = load i32, ptr @proto_q931, align 4
  %29 = call ptr @register_dissector(ptr noundef @.str.365, ptr noundef @dissect_q931_tpkt, i32 noundef %28)
  store ptr %29, ptr @q931_tpkt_handle, align 8
  %30 = load i32, ptr @proto_q931, align 4
  %31 = call ptr @create_dissector_handle(ptr noundef @dissect_q931_tpkt_pdu, i32 noundef %30)
  store ptr %31, ptr @q931_tpkt_pdu_handle, align 8
  %32 = load i32, ptr @proto_q931, align 4
  %33 = call ptr @register_dissector(ptr noundef @.str.366, ptr noundef @dissect_q931_over_ip, i32 noundef %32)
  store ptr %33, ptr @q931_over_ip_handle, align 8
  %34 = load i32, ptr @proto_q931, align 4
  %35 = call ptr @register_dissector(ptr noundef @.str.367, ptr noundef @dissect_q931_ie_cs0, i32 noundef %34)
  %36 = load i32, ptr @proto_q931, align 4
  %37 = call ptr @register_dissector(ptr noundef @.str.368, ptr noundef @dissect_q931_ie_cs7, i32 noundef %36)
  %38 = load i32, ptr @proto_q931, align 4
  %39 = call ptr @register_dissector_table(ptr noundef @.str.369, ptr noundef @.str.370, i32 noundef %38, i32 noundef 4, i32 noundef 2)
  store ptr %39, ptr @codeset_dissector_table, align 8
  %40 = load i32, ptr @proto_q931, align 4
  %41 = call ptr @register_dissector_table(ptr noundef @.str.367, ptr noundef @.str.371, i32 noundef %40, i32 noundef 5, i32 noundef 2)
  store ptr %41, ptr @ie_dissector_table, align 8
  %42 = load i32, ptr @proto_q931, align 4
  %43 = call ptr @register_heur_dissector_list_with_description(ptr noundef @.str.372, ptr noundef @.str.373, i32 noundef %42)
  store ptr %43, ptr @q931_user_heur_subdissector_list, align 8
  %44 = load i32, ptr @proto_q931, align 4
  %45 = call ptr @prefs_register_protocol(i32 noundef %44, ptr noundef null)
  store ptr %45, ptr %3, align 8
  %46 = load ptr, ptr %3, align 8
  call void @prefs_register_bool_preference(ptr noundef %46, ptr noundef @.str.374, ptr noundef @.str.375, ptr noundef @.str.376, ptr noundef @q931_desegment)
  %47 = load ptr, ptr %3, align 8
  call void @prefs_register_bool_preference(ptr noundef %47, ptr noundef @.str.377, ptr noundef @.str.378, ptr noundef @.str.379, ptr noundef @q931_reassembly)
  %48 = load ptr, ptr %3, align 8
  call void @prefs_register_bool_preference(ptr noundef %48, ptr noundef @.str.380, ptr noundef @.str.381, ptr noundef @.str.381, ptr noundef @g931_iso_iec_cause)
  %49 = call i32 @register_tap(ptr noundef @.str.364)
  store i32 %49, ptr @q931_tap, align 4
  call void @llvm.lifetime.end.p0(i64 8, ptr %4) #8
  call void @llvm.lifetime.end.p0(i64 8, ptr %3) #8
  call void @llvm.lifetime.end.p0(i64 4, ptr %2) #8
  call void @llvm.lifetime.end.p0(i64 4, ptr %1) #8
  ret void
}