; Function Attrs: null_pointer_is_valid sspstrong uwtable
define hidden void @proto_register_q931() local_unnamed_addr #0 {
  store ptr @ett_q931, ptr @proto_register_q931.ett, align 16
  store ptr @ett_q931_segments, ptr getelementptr inbounds nuw (i8, ptr @proto_register_q931.ett, i64 8), align 8
  store ptr @ett_q931_segment, ptr getelementptr inbounds nuw (i8, ptr @proto_register_q931.ett, i64 16), align 16
  br label %1

1:                                                ; preds = %0, %1
  %indvars.iv11 = phi i64 [ 3, %0 ], [ %indvars.iv.next12, %1 ]
  %indvars.iv = phi i64 [ 0, %0 ], [ %indvars.iv.next, %1 ]
  %2 = getelementptr [256 x i32], ptr @ett_q931_ie, i64 0, i64 %indvars.iv
  %3 = getelementptr [259 x ptr], ptr @proto_register_q931.ett, i64 0, i64 %indvars.iv11
  store ptr %2, ptr %3, align 8
  %indvars.iv.next = add nuw nsw i64 %indvars.iv, 1
  %indvars.iv.next12 = add nuw nsw i64 %indvars.iv11, 1
  %exitcond.not = icmp eq i64 %indvars.iv.next, 256
  br i1 %exitcond.not, label %4, label %1, !llvm.loop !10

4:                                                ; preds = %1
  %5 = tail call i32 @proto_register_protocol(ptr noundef nonnull @.str.363, ptr noundef nonnull @.str.363, ptr noundef nonnull @.str.364)
  store i32 %5, ptr @proto_q931, align 4
  tail call void @proto_register_field_array(i32 noundef %5, ptr noundef nonnull @proto_register_q931.hf, i32 noundef 153)
  tail call void @proto_register_subtree_array(ptr noundef nonnull @proto_register_q931.ett, i32 noundef 259)
  %6 = load i32, ptr @proto_q931, align 4
  %7 = tail call ptr @expert_register_protocol(i32 noundef %6)
  tail call void @expert_register_field_array(ptr noundef %7, ptr noundef nonnull @proto_register_q931.ei, i32 noundef 4)
  tail call void @reassembly_table_register(ptr noundef nonnull @q931_reassembly_table, ptr noundef nonnull @addresses_reassembly_table_functions)
  %8 = load i32, ptr @proto_q931, align 4
  %9 = tail call ptr @register_dissector(ptr noundef nonnull @.str.364, ptr noundef nonnull @dissect_q931, i32 noundef %8)
  store ptr %9, ptr @q931_handle, align 8
  %10 = load i32, ptr @proto_q931, align 4
  %11 = tail call ptr @register_dissector(ptr noundef nonnull @.str.365, ptr noundef nonnull @dissect_q931_tpkt, i32 noundef %10)
  store ptr %11, ptr @q931_tpkt_handle, align 8
  %12 = load i32, ptr @proto_q931, align 4
  %13 = tail call ptr @create_dissector_handle(ptr noundef nonnull @dissect_q931_tpkt_pdu, i32 noundef %12)
  store ptr %13, ptr @q931_tpkt_pdu_handle, align 8
  %14 = load i32, ptr @proto_q931, align 4
  %15 = tail call ptr @register_dissector(ptr noundef nonnull @.str.366, ptr noundef nonnull @dissect_q931_over_ip, i32 noundef %14)
  store ptr %15, ptr @q931_over_ip_handle, align 8
  %16 = load i32, ptr @proto_q931, align 4
  %17 = tail call ptr @register_dissector(ptr noundef nonnull @.str.367, ptr noundef nonnull @dissect_q931_ie_cs0, i32 noundef %16)
  %18 = load i32, ptr @proto_q931, align 4
  %19 = tail call ptr @register_dissector(ptr noundef nonnull @.str.368, ptr noundef nonnull @dissect_q931_ie_cs7, i32 noundef %18)
  %20 = load i32, ptr @proto_q931, align 4
  %21 = tail call ptr @register_dissector_table(ptr noundef nonnull @.str.369, ptr noundef nonnull @.str.370, i32 noundef %20, i32 noundef 4, i32 noundef 2)
  store ptr %21, ptr @codeset_dissector_table, align 8
  %22 = load i32, ptr @proto_q931, align 4
  %23 = tail call ptr @register_dissector_table(ptr noundef nonnull @.str.367, ptr noundef nonnull @.str.371, i32 noundef %22, i32 noundef 5, i32 noundef 2)
  store ptr %23, ptr @ie_dissector_table, align 8
  %24 = load i32, ptr @proto_q931, align 4
  %25 = tail call ptr @register_heur_dissector_list_with_description(ptr noundef nonnull @.str.372, ptr noundef nonnull @.str.373, i32 noundef %24)
  store ptr %25, ptr @q931_user_heur_subdissector_list, align 8
  %26 = load i32, ptr @proto_q931, align 4
  %27 = tail call ptr @prefs_register_protocol(i32 noundef %26, ptr noundef null)
  tail call void @prefs_register_bool_preference(ptr noundef %27, ptr noundef nonnull @.str.374, ptr noundef nonnull @.str.375, ptr noundef nonnull @.str.376, ptr noundef nonnull @q931_desegment)
  tail call void @prefs_register_bool_preference(ptr noundef %27, ptr noundef nonnull @.str.377, ptr noundef nonnull @.str.378, ptr noundef nonnull @.str.379, ptr noundef nonnull @q931_reassembly)
  tail call void @prefs_register_bool_preference(ptr noundef %27, ptr noundef nonnull @.str.380, ptr noundef nonnull @.str.381, ptr noundef nonnull @.str.381, ptr noundef nonnull @g931_iso_iec_cause)
  %28 = tail call i32 @register_tap(ptr noundef nonnull @.str.364)
  store i32 %28, ptr @q931_tap, align 4
  ret void
}